target datalayout = "e-m:e-p270:32:32-p271:32:32-p272:64:64-i64:64-i128:128-f80:128-n8:16:32:64-S128"
target triple = "x86_64-pc-linux-gnu"

%"class.std::__1::__fs::filesystem::__dir_stream" = type { ptr, %"class.std::__1::__fs::filesystem::path", %"class.std::__1::__fs::filesystem::directory_entry" }
%"class.std::__1::__fs::filesystem::path" = type { %"class.std::__1::basic_string" }
%"class.std::__1::basic_string" = type { %"union.std::__1::basic_string<char>::__rep" }
%"union.std::__1::basic_string<char>::__rep" = type { %"struct.std::__1::basic_string<char>::__long" }
%"struct.std::__1::basic_string<char>::__long" = type { %struct.anon.0, i64, ptr }
%struct.anon.0 = type { i64 }
%"class.std::__1::__fs::filesystem::directory_entry" = type { %"class.std::__1::__fs::filesystem::path", [8 x i8], %"struct.std::__1::__fs::filesystem::directory_entry::__cached_data" }
%"struct.std::__1::__fs::filesystem::directory_entry::__cached_data" = type <{ i64, i64, %"class.std::__1::chrono::time_point", i32, i32, i8, i8, [6 x i8] }>
%"class.std::__1::chrono::time_point" = type { %"class.std::__1::chrono::duration" }
%"class.std::__1::chrono::duration" = type { i128 }
%"class.std::__1::shared_ptr.1" = type { ptr, ptr }
%"class.std::__1::__fs::filesystem::recursive_directory_iterator" = type <{ %"class.std::__1::shared_ptr.1", i8, [7 x i8] }>
%"struct.std::__1::__fs::filesystem::recursive_directory_iterator::__shared_imp" = type <{ %"class.std::__1::stack", i8, [7 x i8] }>
%"class.std::__1::stack" = type { %"class.std::__1::deque" }
%"class.std::__1::deque" = type { %"struct.std::__1::__split_buffer", i64, i64 }
%"struct.std::__1::__split_buffer" = type { ptr, ptr, ptr, ptr }

; Function Attrs: mustprogress nounwind uwtable
define linkonce_odr hidden noundef nonnull align 8 dereferenceable(8) ptr @_ZNKSt3__15dequeINS_4__fs10filesystem12__dir_streamENS_9allocatorIS3_EEE6__sizeB8ne210000Ev(ptr noundef nonnull align 8 dereferenceable(48) %0) #1 comdat align 2 {
  %2 = alloca ptr, align 8
  store ptr %0, ptr %2, align 8, !tbaa !252
  %3 = load ptr, ptr %2, align 8
  %4 = getelementptr inbounds nuw %"class.std::__1::deque", ptr %3, i32 0, i32 2
  ret ptr %4
}

; Function Attrs: mustprogress nounwind uwtable
define linkonce_odr hidden noundef ptr @_ZNSt3__114__split_bufferIPNS_4__fs10filesystem12__dir_streamENS_9allocatorIS4_EEE5beginB8ne210000Ev(ptr noundef nonnull align 8 dereferenceable(32) %0) #1 comdat align 2 {
  %2 = alloca ptr, align 8
  store ptr %0, ptr %2, align 8, !tbaa !256
  %3 = load ptr, ptr %2, align 8
  %4 = getelementptr inbounds nuw %"struct.std::__1::__split_buffer", ptr %3, i32 0, i32 1
  %5 = load ptr, ptr %4, align 8, !tbaa !259
  ret ptr %5
}

; Function Attrs: mustprogress nounwind uwtable
define linkonce_odr hidden noundef i64 @_ZNKSt3__15dequeINS_4__fs10filesystem12__dir_streamENS_9allocatorIS3_EEE4sizeB8ne210000Ev(ptr noundef nonnull align 8 dereferenceable(48) %0) #1 comdat align 2 {
  %2 = alloca ptr, align 8
  store ptr %0, ptr %2, align 8, !tbaa !252
  %3 = load ptr, ptr %2, align 8
  %4 = call noundef nonnull align 8 dereferenceable(8) ptr @_ZNKSt3__15dequeINS_4__fs10filesystem12__dir_streamENS_9allocatorIS3_EEE6__sizeB8ne210000Ev(ptr noundef nonnull align 8 dereferenceable(48) %3) #20
  %5 = load i64, ptr %4, align 8, !tbaa !58
  ret i64 %5
}

; Function Attrs: inlinehint mustprogress nounwind uwtable
define linkonce_odr hidden noundef nonnull align 16 dereferenceable(112) ptr @_ZNSt3__15dequeINS_4__fs10filesystem12__dir_streamENS_9allocatorIS3_EEE4backB8ne210000Ev(ptr noundef nonnull align 8 dereferenceable(48) %0) #4 comdat align 2 {
  %2 = alloca ptr, align 8
  %3 = alloca i64, align 8
  store ptr %0, ptr %2, align 8, !tbaa !252
  %4 = load ptr, ptr %2, align 8
  call void @llvm.lifetime.start.p0(i64 8, ptr %3) #20
  %5 = call noundef i64 @_ZNKSt3__15dequeINS_4__fs10filesystem12__dir_streamENS_9allocatorIS3_EEE4sizeB8ne210000Ev(ptr noundef nonnull align 8 dereferenceable(48) %4) #20
  %6 = getelementptr inbounds nuw %"class.std::__1::deque", ptr %4, i32 0, i32 1
  %7 = load i64, ptr %6, align 8, !tbaa !254
  %8 = add i64 %5, %7
  %9 = sub i64 %8, 1
  store i64 %9, ptr %3, align 8, !tbaa !58
  %10 = getelementptr inbounds nuw %"class.std::__1::deque", ptr %4, i32 0, i32 0
  %11 = call noundef ptr @_ZNSt3__114__split_bufferIPNS_4__fs10filesystem12__dir_streamENS_9allocatorIS4_EEE5beginB8ne210000Ev(ptr noundef nonnull align 8 dereferenceable(32) %10) #20
  %12 = load i64, ptr %3, align 8, !tbaa !58
  %13 = udiv i64 %12, 36
  %14 = getelementptr inbounds nuw ptr, ptr %11, i64 %13
  %15 = load ptr, ptr %14, align 8, !tbaa !40
  %16 = load i64, ptr %3, align 8, !tbaa !58
  %17 = urem i64 %16, 36
  %18 = getelementptr inbounds nuw %"class.std::__1::__fs::filesystem::__dir_stream", ptr %15, i64 %17
  call void @llvm.lifetime.end.p0(i64 8, ptr %3) #20
  ret ptr %18
}

; Function Attrs: mustprogress nounwind uwtable
define linkonce_odr hidden noundef nonnull align 16 dereferenceable(112) ptr @_ZNSt3__15stackINS_4__fs10filesystem12__dir_streamENS_5dequeIS3_NS_9allocatorIS3_EEEEE3topB8ne210000Ev(ptr noundef nonnull align 8 dereferenceable(48) %0) #1 comdat align 2 {
  %2 = alloca ptr, align 8
  store ptr %0, ptr %2, align 8, !tbaa !87
  %3 = load ptr, ptr %2, align 8
  %4 = getelementptr inbounds nuw %"class.std::__1::stack", ptr %3, i32 0, i32 0
  %5 = call noundef nonnull align 16 dereferenceable(112) ptr @_ZNSt3__15dequeINS_4__fs10filesystem12__dir_streamENS_9allocatorIS3_EEE4backB8ne210000Ev(ptr noundef nonnull align 8 dereferenceable(48) %4) #20
  ret ptr %5
}

; Function Attrs: mustprogress nounwind uwtable
define linkonce_odr hidden noundef ptr @_ZNKSt3__110shared_ptrINS_4__fs10filesystem28recursive_directory_iterator12__shared_impEEptB8ne210000Ev(ptr noundef nonnull align 8 dereferenceable(16) %0) #1 comdat align 2 {
  %2 = alloca ptr, align 8
  store ptr %0, ptr %2, align 8, !tbaa !78
  %3 = load ptr, ptr %2, align 8
  %4 = getelementptr inbounds nuw %"class.std::__1::shared_ptr.1", ptr %3, i32 0, i32 0
  %5 = load ptr, ptr %4, align 8, !tbaa !82
  ret ptr %5
}

; Function Attrs: mustprogress uwtable
define dso_local noundef nonnull align 16 dereferenceable(80) ptr @_ZNKSt3__14__fs10filesystem28recursive_directory_iterator13__dereferenceEv(ptr noundef nonnull align 8 dereferenceable(17) %0) #0 align 2 {
  %2 = alloca ptr, align 8
  store ptr %0, ptr %2, align 8, !tbaa !64
  %3 = load ptr, ptr %2, align 8
  %4 = getelementptr inbounds nuw %"class.std::__1::__fs::filesystem::recursive_directory_iterator", ptr %3, i32 0, i32 0
  %5 = call noundef ptr @_ZNKSt3__110shared_ptrINS_4__fs10filesystem28recursive_directory_iterator12__shared_impEEptB8ne210000Ev(ptr noundef nonnull align 8 dereferenceable(16) %4) #20
  %6 = getelementptr inbounds nuw %"struct.std::__1::__fs::filesystem::recursive_directory_iterator::__shared_imp", ptr %5, i32 0, i32 0
  %7 = call noundef nonnull align 16 dereferenceable(112) ptr @_ZNSt3__15stackINS_4__fs10filesystem12__dir_streamENS_5dequeIS3_NS_9allocatorIS3_EEEEE3topB8ne210000Ev(ptr noundef nonnull align 8 dereferenceable(48) %6)
  %8 = getelementptr inbounds nuw %"class.std::__1::__fs::filesystem::__dir_stream", ptr %7, i32 0, i32 2
  ret ptr %8
}