; Function Attrs: mustprogress nofree norecurse nosync nounwind willreturn memory(read, inaccessiblemem: none) uwtable
define dso_local noundef nonnull align 16 dereferenceable(80) ptr @_ZNKSt3__14__fs10filesystem28recursive_directory_iterator13__dereferenceEv(ptr noundef nonnull readonly align 8 captures(none) dereferenceable(17) %0) local_unnamed_addr #5 align 2 {
  %2 = load ptr, ptr %0, align 8, !tbaa !79
  %3 = getelementptr inbounds nuw i8, ptr %2, i64 40
  %4 = load i64, ptr %3, align 8, !tbaa !91
  %5 = getelementptr inbounds nuw i8, ptr %2, i64 32
  %6 = load i64, ptr %5, align 8, !tbaa !90
  %7 = add i64 %4, -1
  %8 = add i64 %7, %6
  %9 = getelementptr inbounds nuw i8, ptr %2, i64 8
  %10 = load ptr, ptr %9, align 8, !tbaa !89
  %11 = udiv i64 %8, 36
  %12 = getelementptr inbounds nuw ptr, ptr %10, i64 %11
  %13 = load ptr, ptr %12, align 8, !tbaa !27
  %14 = urem i64 %8, 36
  %15 = getelementptr inbounds nuw %"class.std::__1::__fs::filesystem::__dir_stream", ptr %13, i64 %14, i32 2
  ret ptr %15
}